; Function Attrs: nounwind uwtable
define hidden void @zim_SplDoublyLinkedList_current(ptr noundef readonly captures(none) %0, ptr noundef writeonly captures(none) %1) #0 {
  %3 = getelementptr inbounds nuw i8, ptr %0, i64 32
  %4 = load ptr, ptr %3, align 8, !tbaa !4
  %5 = getelementptr inbounds i8, ptr %4, i64 -64
  %6 = load ptr, ptr %5, align 8, !tbaa !71
  %7 = getelementptr inbounds nuw i8, ptr %0, i64 44
  %8 = load i32, ptr %7, align 4, !tbaa !4
  %.not = icmp eq i32 %8, 0
  br i1 %.not, label %.critedge, label %9, !prof !59

9:                                                ; preds = %2
  tail call void @zend_wrong_parameters_none_error() #13
  %10 = load ptr, ptr getelementptr inbounds nuw (i8, ptr @executor_globals, i64 960), align 8, !tbaa !7
  %11 = icmp ne ptr %10, null
  tail call void @llvm.assume(i1 %11)
  br label %41

.critedge:                                        ; preds = %2
  %12 = icmp eq ptr %6, null
  br i1 %12, label %18, label %13

13:                                               ; preds = %.critedge
  %14 = getelementptr inbounds nuw i8, ptr %6, i64 16
  %15 = getelementptr inbounds nuw i8, ptr %6, i64 24
  %16 = load i8, ptr %15, align 8, !tbaa !4
  %17 = icmp eq i8 %16, 0
  br i1 %17, label %18, label %20

18:                                               ; preds = %13, %.critedge
  %19 = getelementptr inbounds nuw i8, ptr %1, i64 8
  store i32 1, ptr %19, align 8, !tbaa !4
  br label %41

20:                                               ; preds = %13
  %21 = load i32, ptr %15, align 8
  %22 = and i32 %21, 65280
  %.not21 = icmp eq i32 %22, 0
  br i1 %.not21, label %36, label %23

23:                                               ; preds = %20
  %24 = and i32 %21, 255
  %25 = icmp eq i32 %24, 10
  br i1 %25, label %26, label %.sink.split, !prof !61

26:                                               ; preds = %23
  %27 = load ptr, ptr %14, align 8, !tbaa !4
  %28 = getelementptr inbounds nuw i8, ptr %27, i64 8
  %29 = getelementptr inbounds nuw i8, ptr %27, i64 16
  %30 = load i32, ptr %29, align 8
  %31 = and i32 %30, 65280
  %.not22 = icmp eq i32 %31, 0
  br i1 %.not22, label %36, label %.sink.split

.sink.split:                                      ; preds = %23, %26
  %.sink27 = phi i32 [ %30, %26 ], [ %21, %23 ]
  %.sink.in = phi ptr [ %28, %26 ], [ %14, %23 ]
  %32 = and i32 %.sink27, 65280
  %33 = icmp ne i32 %32, 0
  tail call void @llvm.assume(i1 %33)
  %.sink = load ptr, ptr %.sink.in, align 8, !tbaa !4
  %34 = load i32, ptr %.sink, align 4, !tbaa !56
  %35 = add i32 %34, 1
  store i32 %35, ptr %.sink, align 4, !tbaa !56
  br label %36

36:                                               ; preds = %.sink.split, %20, %26
  %.0 = phi ptr [ %28, %26 ], [ %14, %20 ], [ %.sink.in, %.sink.split ]
  %37 = load ptr, ptr %.0, align 8, !tbaa !4
  %38 = getelementptr inbounds nuw i8, ptr %.0, i64 8
  %39 = load i32, ptr %38, align 8, !tbaa !4
  store ptr %37, ptr %1, align 8, !tbaa !4
  %40 = getelementptr inbounds nuw i8, ptr %1, i64 8
  store i32 %39, ptr %40, align 8, !tbaa !4
  br label %41

41:                                               ; preds = %36, %18, %9
  ret void
}